; Listing generated by Microsoft (R) Optimizing Compiler Version 19.41.34120.0 

include listing.inc

INCLUDELIB MSVCRTD
INCLUDELIB OLDNAMES

msvcjmc	SEGMENT
__69605947_Project1@pch DB 01H
__02EF81A1_leap_year@cpp DB 01H
__E8EEB585_stdafx@h DB 01H
__8E9024C8_stdafx@cpp DB 01H
msvcjmc	ENDS
PUBLIC	?__empty_global_delete@@YAXPEAX@Z		; __empty_global_delete
PUBLIC	?__empty_global_delete@@YAXPEAX_K@Z		; __empty_global_delete
PUBLIC	?Checking@@YA_NH@Z				; Checking
PUBLIC	?nextLeapYear@@YAHH@Z				; nextLeapYear
PUBLIC	__JustMyCode_Default
EXTRN	_RTC_InitBase:PROC
EXTRN	_RTC_Shutdown:PROC
EXTRN	__CheckForDebuggerJustMyCode:PROC
;	COMDAT pdata
pdata	SEGMENT
$pdata$?__empty_global_delete@@YAXPEAX@Z DD imagerel $LN3
	DD	imagerel $LN3+42
	DD	imagerel $unwind$?__empty_global_delete@@YAXPEAX@Z
pdata	ENDS
;	COMDAT pdata
pdata	SEGMENT
$pdata$?__empty_global_delete@@YAXPEAX_K@Z DD imagerel $LN3
	DD	imagerel $LN3+47
	DD	imagerel $unwind$?__empty_global_delete@@YAXPEAX_K@Z
pdata	ENDS
;	COMDAT pdata
pdata	SEGMENT
$pdata$?Checking@@YA_NH@Z DD imagerel $LN6
	DD	imagerel $LN6+131
	DD	imagerel $unwind$?Checking@@YA_NH@Z
pdata	ENDS
;	COMDAT pdata
pdata	SEGMENT
$pdata$?nextLeapYear@@YAHH@Z DD imagerel $LN5
	DD	imagerel $LN5+81
	DD	imagerel $unwind$?nextLeapYear@@YAHH@Z
pdata	ENDS
;	COMDAT rtc$TMZ
rtc$TMZ	SEGMENT
_RTC_Shutdown.rtc$TMZ DQ FLAT:_RTC_Shutdown
rtc$TMZ	ENDS
;	COMDAT rtc$IMZ
rtc$IMZ	SEGMENT
_RTC_InitBase.rtc$IMZ DQ FLAT:_RTC_InitBase
rtc$IMZ	ENDS
;	COMDAT xdata
xdata	SEGMENT
$unwind$?nextLeapYear@@YAHH@Z DD 025051201H
	DD	010d2312H
	DD	07006001dH
	DD	05005H
xdata	ENDS
;	COMDAT xdata
xdata	SEGMENT
$unwind$?Checking@@YA_NH@Z DD 025051201H
	DD	010d2312H
	DD	07006001fH
	DD	05005H
xdata	ENDS
;	COMDAT xdata
xdata	SEGMENT
$unwind$?__empty_global_delete@@YAXPEAX_K@Z DD 025051801H
	DD	01132318H
	DD	0700c001dH
	DD	0500bH
xdata	ENDS
;	COMDAT xdata
xdata	SEGMENT
$unwind$?__empty_global_delete@@YAXPEAX@Z DD 025051301H
	DD	010e2313H
	DD	07007001dH
	DD	05006H
xdata	ENDS
; Function compile flags: /Odt
;	COMDAT __JustMyCode_Default
_TEXT	SEGMENT
__JustMyCode_Default PROC				; COMDAT
	ret	0
__JustMyCode_Default ENDP
_TEXT	ENDS
; Function compile flags: /Odtp /RTCsu /ZI
; File C:\Users\Misha\Desktop\FIT\KPO\labs\Lab_03\Lab_01 Ч копи€\first\Project1\leap_year.cpp
;	COMDAT ?nextLeapYear@@YAHH@Z
_TEXT	SEGMENT
year$ = 224
?nextLeapYear@@YAHH@Z PROC				; nextLeapYear, COMDAT

; 8    : int nextLeapYear(int year) {

$LN5:
	mov	DWORD PTR [rsp+8], ecx
	push	rbp
	push	rdi
	sub	rsp, 232				; 000000e8H
	lea	rbp, QWORD PTR [rsp+32]
	lea	rcx, OFFSET FLAT:__02EF81A1_leap_year@cpp
	call	__CheckForDebuggerJustMyCode
	npad	1
$LN2@nextLeapYe:

; 9    :     while (!Checking(year)) {

	mov	ecx, DWORD PTR year$[rbp]
	call	?Checking@@YA_NH@Z			; Checking
	movzx	eax, al
	test	eax, eax
	jne	SHORT $LN3@nextLeapYe

; 10   :         year++;

	mov	eax, DWORD PTR year$[rbp]
	inc	eax
	mov	DWORD PTR year$[rbp], eax

; 11   :     }

	jmp	SHORT $LN2@nextLeapYe
$LN3@nextLeapYe:

; 12   :     return year;

	mov	eax, DWORD PTR year$[rbp]

; 13   : }

	lea	rsp, QWORD PTR [rbp+200]
	pop	rdi
	pop	rbp
	ret	0
?nextLeapYear@@YAHH@Z ENDP				; nextLeapYear
_TEXT	ENDS
; Function compile flags: /Odtp /RTCsu /ZI
; File C:\Users\Misha\Desktop\FIT\KPO\labs\Lab_03\Lab_01 Ч копи€\first\Project1\leap_year.cpp
;	COMDAT ?Checking@@YA_NH@Z
_TEXT	SEGMENT
tv70 = 192
x$ = 240
?Checking@@YA_NH@Z PROC					; Checking, COMDAT

; 4    : bool Checking(int x) {

$LN6:
	mov	DWORD PTR [rsp+8], ecx
	push	rbp
	push	rdi
	sub	rsp, 248				; 000000f8H
	lea	rbp, QWORD PTR [rsp+32]
	lea	rcx, OFFSET FLAT:__02EF81A1_leap_year@cpp
	call	__CheckForDebuggerJustMyCode
	npad	1

; 5    :     return ((x % 4 == 0) && ((x % 100 != 0) || (x % 400 == 0)));

	mov	eax, DWORD PTR x$[rbp]
	cdq
	and	edx, 3
	add	eax, edx
	and	eax, 3
	sub	eax, edx
	test	eax, eax
	jne	SHORT $LN4@Checking
	mov	eax, DWORD PTR x$[rbp]
	cdq
	mov	ecx, 100				; 00000064H
	idiv	ecx
	mov	eax, edx
	test	eax, eax
	jne	SHORT $LN3@Checking
	mov	eax, DWORD PTR x$[rbp]
	cdq
	mov	ecx, 400				; 00000190H
	idiv	ecx
	mov	eax, edx
	test	eax, eax
	jne	SHORT $LN4@Checking
$LN3@Checking:
	mov	DWORD PTR tv70[rbp], 1
	jmp	SHORT $LN5@Checking
$LN4@Checking:
	mov	DWORD PTR tv70[rbp], 0
$LN5@Checking:
	movzx	eax, BYTE PTR tv70[rbp]

; 6    : }

	lea	rsp, QWORD PTR [rbp+216]
	pop	rdi
	pop	rbp
	ret	0
?Checking@@YA_NH@Z ENDP					; Checking
_TEXT	ENDS
; Function compile flags: /Odtp /RTCsu /ZI
; File C:\Users\Misha\Desktop\FIT\KPO\labs\Lab_03\Lab_01 Ч копи€\first\Project1\leap_year.cpp
;	COMDAT ?__empty_global_delete@@YAXPEAX_K@Z
_TEXT	SEGMENT
__formal$ = 224
__formal$ = 232
?__empty_global_delete@@YAXPEAX_K@Z PROC		; __empty_global_delete, COMDAT

$LN3:
	mov	QWORD PTR [rsp+16], rdx
	mov	QWORD PTR [rsp+8], rcx
	push	rbp
	push	rdi
	sub	rsp, 232				; 000000e8H
	lea	rbp, QWORD PTR [rsp+32]
	lea	rcx, OFFSET FLAT:__02EF81A1_leap_year@cpp
	call	__CheckForDebuggerJustMyCode
	npad	1
	lea	rsp, QWORD PTR [rbp+200]
	pop	rdi
	pop	rbp
	ret	0
?__empty_global_delete@@YAXPEAX_K@Z ENDP		; __empty_global_delete
_TEXT	ENDS
; Function compile flags: /Odtp /RTCsu /ZI
; File C:\Users\Misha\Desktop\FIT\KPO\labs\Lab_03\Lab_01 Ч копи€\first\Project1\leap_year.cpp
;	COMDAT ?__empty_global_delete@@YAXPEAX@Z
_TEXT	SEGMENT
__formal$ = 224
?__empty_global_delete@@YAXPEAX@Z PROC			; __empty_global_delete, COMDAT

$LN3:
	mov	QWORD PTR [rsp+8], rcx
	push	rbp
	push	rdi
	sub	rsp, 232				; 000000e8H
	lea	rbp, QWORD PTR [rsp+32]
	lea	rcx, OFFSET FLAT:__02EF81A1_leap_year@cpp
	call	__CheckForDebuggerJustMyCode
	npad	1
	lea	rsp, QWORD PTR [rbp+200]
	pop	rdi
	pop	rbp
	ret	0
?__empty_global_delete@@YAXPEAX@Z ENDP			; __empty_global_delete
_TEXT	ENDS
END
